target datalayout = "e-m:e-p270:32:32-p271:32:32-p272:64:64-i64:64-i128:128-f80:128-n8:16:32:64-S128"
target triple = "x86_64-pc-linux-gnu"

@.str.34 = private unnamed_addr constant [12 x i8] c"  <plugin>\0A\00", align 1
@.str.35 = private unnamed_addr constant [19 x i8] c"    <num>%d</num>\0A\00", align 1
@.str.36 = private unnamed_addr constant [25 x i8] c"    <module>%d</module>\0A\00", align 1
@.str.37 = private unnamed_addr constant [31 x i8] c"    <operation>%s</operation>\0A\00", align 1
@.str.38 = private unnamed_addr constant [31 x i8] c"    <op_params>%s</op_params>\0A\00", align 1
@.str.39 = private unnamed_addr constant [27 x i8] c"    <enabled>%d</enabled>\0A\00", align 1
@.str.40 = private unnamed_addr constant [79 x i8] c"    <blendop_params>gz12eJxjYGBgkGAAgRNODESDBnsIHll8ANNSGQM=</blendop_params>\0A\00", align 1
@.str.41 = private unnamed_addr constant [42 x i8] c"    <blendop_version>7</blendop_version>\0A\00", align 1
@.str.42 = private unnamed_addr constant [40 x i8] c"    <multi_priority>0</multi_priority>\0A\00", align 1
@.str.43 = private unnamed_addr constant [31 x i8] c"    <multi_name></multi_name>\0A\00", align 1
@.str.44 = private unnamed_addr constant [13 x i8] c"  </plugin>\0A\00", align 1

; Function Attrs: nounwind uwtable
define internal void @print_xml_plugin(ptr noundef %0, i32 noundef %1, i32 noundef %2, ptr noundef %3, ptr noundef %4, i32 noundef %5) #0 {
  %7 = alloca ptr, align 8
  %8 = alloca i32, align 4
  %9 = alloca i32, align 4
  %10 = alloca ptr, align 8
  %11 = alloca ptr, align 8
  %12 = alloca i32, align 4
  store ptr %0, ptr %7, align 8, !tbaa !34
  store i32 %1, ptr %8, align 4, !tbaa !7
  store i32 %2, ptr %9, align 4, !tbaa !7
  store ptr %3, ptr %10, align 8, !tbaa !29
  store ptr %4, ptr %11, align 8, !tbaa !29
  store i32 %5, ptr %12, align 4, !tbaa !7
  %13 = load ptr, ptr %7, align 8, !tbaa !34
  %14 = call i32 (ptr, ptr, ...) @fprintf(ptr noundef %13, ptr noundef @.str.34) #15
  %15 = load ptr, ptr %7, align 8, !tbaa !34
  %16 = load i32, ptr %8, align 4, !tbaa !7
  %17 = call i32 (ptr, ptr, ...) @fprintf(ptr noundef %15, ptr noundef @.str.35, i32 noundef %16) #15
  %18 = load ptr, ptr %7, align 8, !tbaa !34
  %19 = load i32, ptr %9, align 4, !tbaa !7
  %20 = call i32 (ptr, ptr, ...) @fprintf(ptr noundef %18, ptr noundef @.str.36, i32 noundef %19) #15
  %21 = load ptr, ptr %7, align 8, !tbaa !34
  %22 = load ptr, ptr %10, align 8, !tbaa !29
  %23 = call i32 (ptr, ptr, ...) @fprintf(ptr noundef %21, ptr noundef @.str.37, ptr noundef %22) #15
  %24 = load ptr, ptr %7, align 8, !tbaa !34
  %25 = load ptr, ptr %11, align 8, !tbaa !29
  %26 = call i32 (ptr, ptr, ...) @fprintf(ptr noundef %24, ptr noundef @.str.38, ptr noundef %25) #15
  %27 = load ptr, ptr %7, align 8, !tbaa !34
  %28 = load i32, ptr %12, align 4, !tbaa !7
  %29 = call i32 (ptr, ptr, ...) @fprintf(ptr noundef %27, ptr noundef @.str.39, i32 noundef %28) #15
  %30 = load ptr, ptr %7, align 8, !tbaa !34
  %31 = call i32 (ptr, ptr, ...) @fprintf(ptr noundef %30, ptr noundef @.str.40) #15
  %32 = load ptr, ptr %7, align 8, !tbaa !34
  %33 = call i32 (ptr, ptr, ...) @fprintf(ptr noundef %32, ptr noundef @.str.41) #15
  %34 = load ptr, ptr %7, align 8, !tbaa !34
  %35 = call i32 (ptr, ptr, ...) @fprintf(ptr noundef %34, ptr noundef @.str.42) #15
  %36 = load ptr, ptr %7, align 8, !tbaa !34
  %37 = call i32 (ptr, ptr, ...) @fprintf(ptr noundef %36, ptr noundef @.str.43) #15
  %38 = load ptr, ptr %7, align 8, !tbaa !34
  %39 = call i32 (ptr, ptr, ...) @fprintf(ptr noundef %38, ptr noundef @.str.44) #15
  ret void
}