; Function Attrs: nofree nounwind uwtable
define internal fastcc void @print_xml_plugin(ptr noundef nonnull captures(none) %0, i32 noundef %1, i32 noundef range(i32 2, 5) %2, ptr noundef %3, ptr noundef %4, i32 noundef range(i32 0, 2) %5) unnamed_addr #7 {
  %7 = tail call i64 @fwrite(ptr nonnull @.str.34, i64 11, i64 1, ptr nonnull %0)
  %8 = tail call i32 (ptr, ptr, ...) @fprintf(ptr noundef nonnull %0, ptr noundef nonnull @.str.35, i32 noundef %1) #24
  %9 = tail call i32 (ptr, ptr, ...) @fprintf(ptr noundef nonnull %0, ptr noundef nonnull @.str.36, i32 noundef %2) #24
  %10 = tail call i32 (ptr, ptr, ...) @fprintf(ptr noundef nonnull %0, ptr noundef nonnull @.str.37, ptr noundef %3) #24
  %11 = tail call i32 (ptr, ptr, ...) @fprintf(ptr noundef nonnull %0, ptr noundef nonnull @.str.38, ptr noundef %4) #24
  %12 = tail call i32 (ptr, ptr, ...) @fprintf(ptr noundef nonnull %0, ptr noundef nonnull @.str.39, i32 noundef %5) #24
  %13 = tail call i64 @fwrite(ptr nonnull @.str.40, i64 78, i64 1, ptr nonnull %0)
  %14 = tail call i64 @fwrite(ptr nonnull @.str.41, i64 41, i64 1, ptr nonnull %0)
  %15 = tail call i64 @fwrite(ptr nonnull @.str.42, i64 39, i64 1, ptr nonnull %0)
  %16 = tail call i64 @fwrite(ptr nonnull @.str.43, i64 30, i64 1, ptr nonnull %0)
  %17 = tail call i64 @fwrite(ptr nonnull @.str.44, i64 12, i64 1, ptr nonnull %0)
  ret void
}